; Function Attrs: nounwind uwtable
define range(i32 0, 2) i32 @wolfSSL_CTX_set_cipher_list(ptr noundef %0, ptr noundef %1) local_unnamed_addr #0 {
  %3 = icmp eq ptr %0, null
  br i1 %3, label %11, label %4

4:                                                ; preds = %2
  %5 = tail call i32 @AllocateCtxSuites(ptr noundef nonnull %0) #22
  %.not = icmp eq i32 %5, 0
  br i1 %.not, label %6, label %11

6:                                                ; preds = %4
  %7 = getelementptr inbounds nuw i8, ptr %0, i64 152
  %8 = load ptr, ptr %7, align 8, !tbaa !213
  %9 = tail call i32 @SetCipherList(ptr noundef nonnull %0, ptr noundef %8, ptr noundef %1) #22
  %.not6 = icmp ne i32 %9, 0
  %10 = zext i1 %.not6 to i32
  br label %11

11:                                               ; preds = %4, %2, %6
  %.0 = phi i32 [ %10, %6 ], [ 0, %2 ], [ 0, %4 ]
  ret i32 %.0
}